; Function Attrs: mustprogress nounwind uwtable
define dso_local void @_ZN4node12wasm_web_api19WasmStreamingObject6FinishERKN2v820FunctionCallbackInfoINS2_5ValueEEE(ptr nocapture noundef nonnull readonly align 8 dereferenceable(20) %args) #3 align 2 {
entry:
  %0 = load ptr, ptr %args, align 8
  %1 = load i64, ptr %0, align 8
  %sub.i.i29.i = add i64 %1, -1
  %2 = inttoptr i64 %sub.i.i29.i to ptr
  %3 = load i64, ptr %2, align 8
  %sub.i32.i = add i64 %3, 11
  %4 = inttoptr i64 %sub.i32.i to ptr
  %5 = load i16, ptr %4, align 2
  %conv.i.i = zext i16 %5 to i32
  %cmp.i.i = icmp eq i16 %5, 1040
  %sub.i.i = add nsw i32 %conv.i.i, -1057
  %cmp1.i.i = icmp ult i32 %sub.i.i, 1002
  %6 = select i1 %cmp.i.i, i1 true, i1 %cmp1.i.i
  br i1 %6, label %if.then.i.i, label %if.end.i.i

if.then.i.i:                                      ; preds = %entry
  %sub.i.i.i = add i64 %1, 31
  %7 = inttoptr i64 %sub.i.i.i to ptr
  %8 = load i64, ptr %7, align 8
  %9 = inttoptr i64 %8 to ptr
  br label %_ZN4node10BaseObject12FromJSObjectEN2v85LocalINS1_5ValueEEE.exit

if.end.i.i:                                       ; preds = %entry
  %call7.i.i = tail call noundef ptr @_ZN2v86Object38SlowGetAlignedPointerFromInternalFieldEi(ptr noundef nonnull align 1 dereferenceable(1) %0, i32 noundef 1) #16
  br label %_ZN4node10BaseObject12FromJSObjectEN2v85LocalINS1_5ValueEEE.exit

_ZN4node10BaseObject12FromJSObjectEN2v85LocalINS1_5ValueEEE.exit: ; preds = %if.then.i.i, %if.end.i.i
  %retval.i11.0.i = phi ptr [ %9, %if.then.i.i ], [ %call7.i.i, %if.end.i.i ]
  %cmp = icmp eq ptr %retval.i11.0.i, null
  br i1 %cmp, label %return, label %do.body11

do.body11:                                        ; preds = %_ZN4node10BaseObject12FromJSObjectEN2v85LocalINS1_5ValueEEE.exit
  %streaming_ = getelementptr inbounds i8, ptr %retval.i11.0.i, i64 32
  %10 = load ptr, ptr %streaming_, align 8
  %cmp.i.not = icmp eq ptr %10, null
  br i1 %cmp.i.not, label %do.body16, label %do.body20

do.body16:                                        ; preds = %do.body11
  tail call void @_ZN4node6AssertERKNS_13AssertionInfoE(ptr noundef nonnull align 8 dereferenceable(24) @_ZZN4node12wasm_web_api19WasmStreamingObject6FinishERKN2v820FunctionCallbackInfoINS2_5ValueEEEE4args) #16
  tail call void @abort() #17
  unreachable

do.body20:                                        ; preds = %do.body11
  %length_.i = getelementptr inbounds i8, ptr %args, i64 16
  %11 = load i32, ptr %length_.i, align 8
  %cmp22.not = icmp eq i32 %11, 0
  br i1 %cmp22.not, label %do.end30, label %do.body27

do.body27:                                        ; preds = %do.body20
  tail call void @_ZN4node6AssertERKNS_13AssertionInfoE(ptr noundef nonnull align 8 dereferenceable(24) @_ZZN4node12wasm_web_api19WasmStreamingObject6FinishERKN2v820FunctionCallbackInfoINS2_5ValueEEEE4args_0) #16
  tail call void @abort() #17
  unreachable

do.end30:                                         ; preds = %do.body20
  tail call void @_ZN2v813WasmStreaming6FinishEb(ptr noundef nonnull align 8 dereferenceable(8) %10, i1 noundef zeroext true) #16
  br label %return

return:                                           ; preds = %_ZN4node10BaseObject12FromJSObjectEN2v85LocalINS1_5ValueEEE.exit, %do.end30
  ret void
}